target datalayout = "e-m:e-p270:32:32-p271:32:32-p272:64:64-i64:64-i128:128-f80:128-n8:16:32:64-S128"
target triple = "x86_64-pc-linux-gnu"

%struct.lua_State = type { %struct.GCRef, i8, i8, i8, i8, %struct.MRef, %struct.GCRef, ptr, ptr, %struct.MRef, %struct.MRef, %struct.GCRef, %struct.GCRef, ptr, i32 }
%struct.MRef = type { i64 }
%struct.GCRef = type { i64 }
%union.TValue = type { i64 }
%struct.global_State = type { ptr, ptr, %struct.GCState, %struct.GCstr, i8, i8, i8, i8, %struct.StrInternState, i32, %struct.GCRef, %struct.SBuf, %union.TValue, %union.TValue, %struct.Node, %union.TValue, %struct.GCupval, i32, i32, ptr, ptr, ptr, i32, i32, %struct.GCRef, %struct.MRef, %struct.MRef, %struct.PRNGState, [39 x %struct.GCRef] }
%struct.GCState = type { i64, i64, i8, i8, i8, i8, i32, %struct.GCRef, %struct.MRef, %struct.GCRef, %struct.GCRef, %struct.GCRef, %struct.GCRef, i64, i64, i32, i32, %struct.MRef }
%struct.GCstr = type { %struct.GCRef, i8, i8, i8, i8, i32, i32, i32 }
%struct.StrInternState = type { ptr, i32, i32, i32, i8, i8, i8, i8, i64 }
%struct.SBuf = type { ptr, ptr, ptr, %struct.MRef }
%struct.Node = type { %union.TValue, %union.TValue, %struct.MRef }
%struct.GCupval = type { %struct.GCRef, i8, i8, i8, i8, %union.anon, %struct.MRef, i32 }
%union.anon = type { %struct.anon.1 }
%struct.anon.1 = type { %struct.GCRef, %struct.GCRef }
%struct.PRNGState = type { [4 x i64] }

@.str = private unnamed_addr constant [23 x i8] c"copy of dead GC object\00", align 1

; Function Attrs: alwaysinline nounwind uwtable
define internal void @checklivetv(ptr noundef %0, ptr noundef %1, ptr noundef %2) #4 {
  %4 = alloca ptr, align 8
  %5 = alloca ptr, align 8
  %6 = alloca ptr, align 8
  store ptr %0, ptr %4, align 8, !tbaa !4
  store ptr %1, ptr %5, align 8, !tbaa !22
  store ptr %2, ptr %6, align 8, !tbaa !20
  ret void
}

; Function Attrs: alwaysinline nounwind uwtable
define internal void @copyTV(ptr noundef %0, ptr noundef %1, ptr noundef %2) #4 {
  %4 = alloca ptr, align 8
  %5 = alloca ptr, align 8
  %6 = alloca ptr, align 8
  store ptr %0, ptr %4, align 8, !tbaa !4
  store ptr %1, ptr %5, align 8, !tbaa !22
  store ptr %2, ptr %6, align 8, !tbaa !22
  %7 = load ptr, ptr %5, align 8, !tbaa !22
  %8 = load ptr, ptr %6, align 8, !tbaa !22
  call void @llvm.memcpy.p0.p0.i64(ptr align 8 %7, ptr align 8 %8, i64 8, i1 false), !tbaa.struct !25
  %9 = load ptr, ptr %4, align 8, !tbaa !4
  %10 = load ptr, ptr %5, align 8, !tbaa !22
  call void @checklivetv(ptr noundef %9, ptr noundef %10, ptr noundef @.str)
  ret void
}

; Function Attrs: nounwind uwtable
define internal ptr @api_call_base(ptr noundef %0, i32 noundef %1) #0 {
  %3 = alloca ptr, align 8
  %4 = alloca i32, align 4
  %5 = alloca ptr, align 8
  %6 = alloca ptr, align 8
  store ptr %0, ptr %3, align 8, !tbaa !4
  store i32 %1, ptr %4, align 4, !tbaa !16
  call void @llvm.lifetime.start.p0(i64 8, ptr %5) #9
  %7 = load ptr, ptr %3, align 8, !tbaa !4
  %8 = getelementptr inbounds nuw %struct.lua_State, ptr %7, i32 0, i32 8
  %9 = load ptr, ptr %8, align 8, !tbaa !17
  store ptr %9, ptr %5, align 8, !tbaa !22
  call void @llvm.lifetime.start.p0(i64 8, ptr %6) #9
  %10 = load ptr, ptr %5, align 8, !tbaa !22
  %11 = load i32, ptr %4, align 4, !tbaa !16
  %12 = sext i32 %11 to i64
  %13 = sub i64 0, %12
  %14 = getelementptr inbounds %union.TValue, ptr %10, i64 %13
  store ptr %14, ptr %6, align 8, !tbaa !22
  %15 = load ptr, ptr %5, align 8, !tbaa !22
  %16 = getelementptr inbounds %union.TValue, ptr %15, i64 1
  %17 = load ptr, ptr %3, align 8, !tbaa !4
  %18 = getelementptr inbounds nuw %struct.lua_State, ptr %17, i32 0, i32 8
  store ptr %16, ptr %18, align 8, !tbaa !17
  br label %19

19:                                               ; preds = %28, %2
  %20 = load ptr, ptr %5, align 8, !tbaa !22
  %21 = load ptr, ptr %6, align 8, !tbaa !22
  %22 = icmp ugt ptr %20, %21
  br i1 %22, label %23, label %31

23:                                               ; preds = %19
  %24 = load ptr, ptr %3, align 8, !tbaa !4
  %25 = load ptr, ptr %5, align 8, !tbaa !22
  %26 = load ptr, ptr %5, align 8, !tbaa !22
  %27 = getelementptr inbounds %union.TValue, ptr %26, i64 -1
  call void @copyTV(ptr noundef %24, ptr noundef %25, ptr noundef %27)
  br label %28

28:                                               ; preds = %23
  %29 = load ptr, ptr %5, align 8, !tbaa !22
  %30 = getelementptr inbounds %union.TValue, ptr %29, i32 -1
  store ptr %30, ptr %5, align 8, !tbaa !22
  br label %19, !llvm.loop !81

31:                                               ; preds = %19
  %32 = load ptr, ptr %5, align 8, !tbaa !22
  store i64 -1, ptr %32, align 8, !tbaa !26
  %33 = load ptr, ptr %5, align 8, !tbaa !22
  %34 = getelementptr inbounds %union.TValue, ptr %33, i64 1
  call void @llvm.lifetime.end.p0(i64 8, ptr %6) #9
  call void @llvm.lifetime.end.p0(i64 8, ptr %5) #9
  ret ptr %34
}

; Function Attrs: nounwind uwtable
define internal ptr @index2adr_stack(ptr noundef %0, i32 noundef %1) #0 {
  %3 = alloca ptr, align 8
  %4 = alloca ptr, align 8
  %5 = alloca i32, align 4
  %6 = alloca ptr, align 8
  %7 = alloca i32, align 4
  store ptr %0, ptr %4, align 8, !tbaa !4
  store i32 %1, ptr %5, align 4, !tbaa !16
  %8 = load i32, ptr %5, align 4, !tbaa !16
  %9 = icmp sgt i32 %8, 0
  br i1 %9, label %10, label %34

10:                                               ; preds = %2
  call void @llvm.lifetime.start.p0(i64 8, ptr %6) #9
  %11 = load ptr, ptr %4, align 8, !tbaa !4
  %12 = getelementptr inbounds nuw %struct.lua_State, ptr %11, i32 0, i32 7
  %13 = load ptr, ptr %12, align 8, !tbaa !18
  %14 = load i32, ptr %5, align 4, !tbaa !16
  %15 = sub nsw i32 %14, 1
  %16 = sext i32 %15 to i64
  %17 = getelementptr inbounds %union.TValue, ptr %13, i64 %16
  store ptr %17, ptr %6, align 8, !tbaa !22
  %18 = load ptr, ptr %6, align 8, !tbaa !22
  %19 = load ptr, ptr %4, align 8, !tbaa !4
  %20 = getelementptr inbounds nuw %struct.lua_State, ptr %19, i32 0, i32 8
  %21 = load ptr, ptr %20, align 8, !tbaa !17
  %22 = icmp ult ptr %18, %21
  br i1 %22, label %23, label %25

23:                                               ; preds = %10
  %24 = load ptr, ptr %6, align 8, !tbaa !22
  store ptr %24, ptr %3, align 8
  store i32 1, ptr %7, align 4
  br label %33

25:                                               ; preds = %10
  %26 = load ptr, ptr %4, align 8, !tbaa !4
  %27 = getelementptr inbounds nuw %struct.lua_State, ptr %26, i32 0, i32 5
  %28 = getelementptr inbounds nuw %struct.MRef, ptr %27, i32 0, i32 0
  %29 = load i64, ptr %28, align 8, !tbaa !29
  %30 = inttoptr i64 %29 to ptr
  %31 = getelementptr inbounds nuw %struct.global_State, ptr %30, i32 0, i32 14
  %32 = getelementptr inbounds nuw %struct.Node, ptr %31, i32 0, i32 0
  store ptr %32, ptr %3, align 8
  store i32 1, ptr %7, align 4
  br label %33

33:                                               ; preds = %25, %23
  call void @llvm.lifetime.end.p0(i64 8, ptr %6) #9
  br label %41

34:                                               ; preds = %2
  %35 = load ptr, ptr %4, align 8, !tbaa !4
  %36 = getelementptr inbounds nuw %struct.lua_State, ptr %35, i32 0, i32 8
  %37 = load ptr, ptr %36, align 8, !tbaa !17
  %38 = load i32, ptr %5, align 4, !tbaa !16
  %39 = sext i32 %38 to i64
  %40 = getelementptr inbounds %union.TValue, ptr %37, i64 %39
  store ptr %40, ptr %3, align 8
  br label %41

41:                                               ; preds = %34, %33
  %42 = load ptr, ptr %3, align 8
  ret ptr %42
}

; Function Attrs: nounwind uwtable
define dso_local i32 @lua_pcall(ptr noundef %0, i32 noundef %1, i32 noundef %2, i32 noundef %3) #0 {
  %5 = alloca ptr, align 8
  %6 = alloca i32, align 4
  %7 = alloca i32, align 4
  %8 = alloca i32, align 4
  %9 = alloca ptr, align 8
  %10 = alloca i8, align 1
  %11 = alloca i64, align 8
  %12 = alloca i32, align 4
  %13 = alloca ptr, align 8
  store ptr %0, ptr %5, align 8, !tbaa !4
  store i32 %1, ptr %6, align 4, !tbaa !16
  store i32 %2, ptr %7, align 4, !tbaa !16
  store i32 %3, ptr %8, align 4, !tbaa !16
  call void @llvm.lifetime.start.p0(i64 8, ptr %9) #9
  %14 = load ptr, ptr %5, align 8, !tbaa !4
  %15 = getelementptr inbounds nuw %struct.lua_State, ptr %14, i32 0, i32 5
  %16 = getelementptr inbounds nuw %struct.MRef, ptr %15, i32 0, i32 0
  %17 = load i64, ptr %16, align 8, !tbaa !29
  %18 = inttoptr i64 %17 to ptr
  store ptr %18, ptr %9, align 8, !tbaa !58
  call void @llvm.lifetime.start.p0(i64 1, ptr %10) #9
  %19 = load ptr, ptr %9, align 8, !tbaa !58
  %20 = getelementptr inbounds nuw %struct.global_State, ptr %19, i32 0, i32 5
  %21 = load i8, ptr %20, align 1, !tbaa !82
  %22 = zext i8 %21 to i32
  %23 = and i32 %22, -16
  %24 = trunc i32 %23 to i8
  store i8 %24, ptr %10, align 1, !tbaa !26
  call void @llvm.lifetime.start.p0(i64 8, ptr %11) #9
  call void @llvm.lifetime.start.p0(i64 4, ptr %12) #9
  %25 = load i32, ptr %8, align 4, !tbaa !16
  %26 = icmp eq i32 %25, 0
  br i1 %26, label %27, label %28

27:                                               ; preds = %4
  store i64 0, ptr %11, align 8, !tbaa !38
  br label %41

28:                                               ; preds = %4
  call void @llvm.lifetime.start.p0(i64 8, ptr %13) #9
  %29 = load ptr, ptr %5, align 8, !tbaa !4
  %30 = load i32, ptr %8, align 4, !tbaa !16
  %31 = call ptr @index2adr_stack(ptr noundef %29, i32 noundef %30)
  store ptr %31, ptr %13, align 8, !tbaa !22
  %32 = load ptr, ptr %13, align 8, !tbaa !22
  %33 = load ptr, ptr %5, align 8, !tbaa !4
  %34 = getelementptr inbounds nuw %struct.lua_State, ptr %33, i32 0, i32 10
  %35 = getelementptr inbounds nuw %struct.MRef, ptr %34, i32 0, i32 0
  %36 = load i64, ptr %35, align 8, !tbaa !83
  %37 = inttoptr i64 %36 to ptr
  %38 = ptrtoint ptr %32 to i64
  %39 = ptrtoint ptr %37 to i64
  %40 = sub i64 %38, %39
  store i64 %40, ptr %11, align 8, !tbaa !38
  call void @llvm.lifetime.end.p0(i64 8, ptr %13) #9
  br label %41

41:                                               ; preds = %28, %27
  %42 = load ptr, ptr %5, align 8, !tbaa !4
  %43 = load ptr, ptr %5, align 8, !tbaa !4
  %44 = load i32, ptr %6, align 4, !tbaa !16
  %45 = call ptr @api_call_base(ptr noundef %43, i32 noundef %44)
  %46 = load i32, ptr %7, align 4, !tbaa !16
  %47 = add nsw i32 %46, 1
  %48 = load i64, ptr %11, align 8, !tbaa !38
  %49 = call i32 @lj_vm_pcall(ptr noundef %42, ptr noundef %45, i32 noundef %47, i64 noundef %48)
  store i32 %49, ptr %12, align 4, !tbaa !16
  %50 = load i32, ptr %12, align 4, !tbaa !16
  %51 = icmp ne i32 %50, 0
  br i1 %51, label %52, label %64

52:                                               ; preds = %41
  %53 = load ptr, ptr %9, align 8, !tbaa !58
  %54 = getelementptr inbounds nuw %struct.global_State, ptr %53, i32 0, i32 5
  %55 = load i8, ptr %54, align 1, !tbaa !82
  %56 = zext i8 %55 to i32
  %57 = and i32 %56, 15
  %58 = load i8, ptr %10, align 1, !tbaa !26
  %59 = zext i8 %58 to i32
  %60 = or i32 %57, %59
  %61 = trunc i32 %60 to i8
  %62 = load ptr, ptr %9, align 8, !tbaa !58
  %63 = getelementptr inbounds nuw %struct.global_State, ptr %62, i32 0, i32 5
  store i8 %61, ptr %63, align 1, !tbaa !82
  br label %64

64:                                               ; preds = %52, %41
  %65 = load i32, ptr %12, align 4, !tbaa !16
  call void @llvm.lifetime.end.p0(i64 4, ptr %12) #9
  call void @llvm.lifetime.end.p0(i64 8, ptr %11) #9
  call void @llvm.lifetime.end.p0(i64 1, ptr %10) #9
  call void @llvm.lifetime.end.p0(i64 8, ptr %9) #9
  ret i32 %65
}