; Function Attrs: nounwind uwtable
define dso_local i32 @lua_pcall(ptr noundef %0, i32 noundef %1, i32 noundef %2, i32 noundef %3) local_unnamed_addr #1 {
  %5 = getelementptr inbounds nuw i8, ptr %0, i64 16
  %6 = load i64, ptr %5, align 8, !tbaa !21
  %7 = inttoptr i64 %6 to ptr
  %8 = getelementptr inbounds nuw i8, ptr %7, i64 145
  %9 = load i8, ptr %8, align 1, !tbaa !60
  %10 = and i8 %9, -16
  %11 = icmp eq i32 %3, 0
  br i1 %11, label %._crit_edge, label %12

._crit_edge:                                      ; preds = %4
  %.phi.trans.insert = getelementptr inbounds nuw i8, ptr %0, i64 40
  %.pre = load ptr, ptr %.phi.trans.insert, align 8, !tbaa !14
  br label %34

12:                                               ; preds = %4
  %13 = icmp sgt i32 %3, 0
  br i1 %13, label %14, label %24

14:                                               ; preds = %12
  %15 = getelementptr inbounds nuw i8, ptr %0, i64 32
  %16 = load ptr, ptr %15, align 8, !tbaa !15
  %17 = zext nneg i32 %3 to i64
  %18 = getelementptr %union.TValue, ptr %16, i64 %17
  %19 = getelementptr i8, ptr %18, i64 -8
  %20 = getelementptr inbounds nuw i8, ptr %0, i64 40
  %21 = load ptr, ptr %20, align 8, !tbaa !14
  %22 = icmp ult ptr %19, %21
  %23 = getelementptr inbounds nuw i8, ptr %7, i64 248
  %spec.select = select i1 %22, ptr %19, ptr %23
  br label %index2adr_stack.exit

24:                                               ; preds = %12
  %25 = getelementptr inbounds nuw i8, ptr %0, i64 40
  %26 = load ptr, ptr %25, align 8, !tbaa !14
  %27 = sext i32 %3 to i64
  %28 = getelementptr inbounds %union.TValue, ptr %26, i64 %27
  br label %index2adr_stack.exit

index2adr_stack.exit:                             ; preds = %14, %24
  %29 = phi ptr [ %26, %24 ], [ %21, %14 ]
  %.1.i = phi ptr [ %28, %24 ], [ %spec.select, %14 ]
  %30 = getelementptr inbounds nuw i8, ptr %0, i64 56
  %31 = load i64, ptr %30, align 8, !tbaa !61
  %32 = ptrtoint ptr %.1.i to i64
  %33 = sub i64 %32, %31
  br label %34

34:                                               ; preds = %._crit_edge, %index2adr_stack.exit
  %35 = phi ptr [ %29, %index2adr_stack.exit ], [ %.pre, %._crit_edge ]
  %.0 = phi i64 [ %33, %index2adr_stack.exit ], [ 0, %._crit_edge ]
  %36 = getelementptr inbounds nuw i8, ptr %0, i64 40
  %37 = sext i32 %1 to i64
  %38 = sub nsw i64 0, %37
  %39 = getelementptr inbounds %union.TValue, ptr %35, i64 %38
  %40 = getelementptr inbounds nuw i8, ptr %35, i64 8
  store ptr %40, ptr %36, align 8, !tbaa !14
  %41 = icmp sgt i32 %1, 0
  br i1 %41, label %.lr.ph.i, label %api_call_base.exit

.lr.ph.i:                                         ; preds = %34, %.lr.ph.i
  %.012.i = phi ptr [ %42, %.lr.ph.i ], [ %35, %34 ]
  %42 = getelementptr inbounds i8, ptr %.012.i, i64 -8
  %43 = load i64, ptr %42, align 8, !tbaa !17
  store i64 %43, ptr %.012.i, align 8, !tbaa !17
  %44 = icmp ugt ptr %42, %39
  br i1 %44, label %.lr.ph.i, label %api_call_base.exit, !llvm.loop !59

api_call_base.exit:                               ; preds = %.lr.ph.i, %34
  %.0.lcssa.i = phi ptr [ %35, %34 ], [ %42, %.lr.ph.i ]
  store i64 -1, ptr %.0.lcssa.i, align 8, !tbaa !17
  %45 = getelementptr inbounds nuw i8, ptr %.0.lcssa.i, i64 8
  %46 = add nsw i32 %2, 1
  %47 = tail call i32 @lj_vm_pcall(ptr noundef %0, ptr noundef nonnull %45, i32 noundef %46, i64 noundef %.0) #13
  %.not = icmp eq i32 %47, 0
  br i1 %.not, label %52, label %48

48:                                               ; preds = %api_call_base.exit
  %49 = load i8, ptr %8, align 1, !tbaa !60
  %50 = and i8 %49, 15
  %51 = or disjoint i8 %50, %10
  store i8 %51, ptr %8, align 1, !tbaa !60
  br label %52

52:                                               ; preds = %48, %api_call_base.exit
  ret i32 %47
}